target datalayout = "e-m:e-p270:32:32-p271:32:32-p272:64:64-i64:64-i128:128-f80:128-n8:16:32:64-S128"
target triple = "x86_64-pc-linux-gnu"

%struct._zval_struct = type { %union._zend_value, %union.anon.3, %union.anon.6 }
%union._zend_value = type { i64 }
%union.anon.3 = type { i32 }
%union.anon.6 = type { i32 }
%struct._zend_array = type { %struct._zend_refcounted_h, %union.anon.0, i32, %union.anon.1, i32, i32, i32, i32, i64, ptr }
%struct._zend_refcounted_h = type { i32, %union.anon }
%union.anon = type { i32 }
%union.anon.0 = type { i32 }
%union.anon.1 = type { ptr }
%struct._spl_SplObjectStorage = type { %struct._zend_array, i64, i32, i64, ptr, %struct._zend_object }
%struct._zend_object = type { %struct._zend_refcounted_h, i32, ptr, ptr, ptr, [1 x %struct._zval_struct] }
%struct._spl_SplObjectStorageElement = type { ptr, %struct._zval_struct }
%struct._zend_class_entry = type { i8, ptr, %union.anon.8, i32, i32, i32, i32, ptr, ptr, ptr, %struct._zend_array, %struct._zend_array, %struct._zend_array, ptr, ptr, ptr, ptr, ptr, ptr, ptr, ptr, ptr, ptr, ptr, ptr, ptr, ptr, ptr, ptr, ptr, ptr, ptr, %union.anon.9, ptr, ptr, ptr, ptr, i32, i32, %union.anon.10, ptr, ptr, ptr, ptr, i32, ptr, ptr, %union.anon.11 }
%union.anon.8 = type { ptr }
%union.anon.9 = type { ptr }
%union.anon.10 = type { ptr }
%union.anon.11 = type { %struct.anon.12 }
%struct.anon.12 = type { ptr, i32, i32 }
%struct.anon.7 = type { i8, [3 x i8], i32, ptr, ptr, ptr, i32, i32, ptr, ptr, ptr, ptr, i32 }
%struct._zend_class_arrayaccess_funcs = type { ptr, ptr, ptr, ptr }

@spl_ce_SplObjectStorage = global ptr null, align 8
@.str.61 = private unnamed_addr constant [8 x i8] c"gethash\00", align 1

; Function Attrs: nounwind uwtable
define internal void @spl_object_storage_addall(ptr noundef %0, ptr noundef %1) #0 {
  %3 = alloca ptr, align 8
  %4 = alloca ptr, align 8
  %5 = alloca ptr, align 8
  %6 = alloca ptr, align 8
  %7 = alloca ptr, align 8
  %8 = alloca i32, align 4
  %9 = alloca i64, align 8
  %10 = alloca ptr, align 8
  store ptr %0, ptr %4, align 8
  store ptr %1, ptr %5, align 8
  br label %11

11:                                               ; preds = %2
  %12 = load ptr, ptr %5, align 8
  %13 = getelementptr inbounds %struct._spl_SplObjectStorage, ptr %12, i32 0, i32 0
  store ptr %13, ptr %7, align 8
  %14 = load ptr, ptr %7, align 8
  %15 = getelementptr inbounds %struct._zend_array, ptr %14, i32 0, i32 4
  %16 = load i32, ptr %15, align 8
  store i32 %16, ptr %8, align 4
  %17 = load ptr, ptr %7, align 8
  %18 = getelementptr inbounds %struct._zend_array, ptr %17, i32 0, i32 1
  %19 = load i32, ptr %18, align 8
  %20 = xor i32 %19, -1
  %21 = and i32 %20, 4
  %22 = zext i32 %21 to i64
  %23 = mul i64 %22, 4
  %24 = add i64 16, %23
  store i64 %24, ptr %9, align 8
  %25 = load ptr, ptr %7, align 8
  %26 = getelementptr inbounds %struct._zend_array, ptr %25, i32 0, i32 3
  %27 = load ptr, ptr %26, align 8
  store ptr %27, ptr %10, align 8
  br label %28

28:                                               ; preds = %55, %11
  %29 = load i32, ptr %8, align 4
  %30 = icmp ugt i32 %29, 0
  br i1 %30, label %31, label %61

31:                                               ; preds = %28
  %32 = load ptr, ptr %10, align 8
  store ptr %32, ptr %3, align 8
  %33 = load ptr, ptr %3, align 8
  %34 = getelementptr inbounds %struct._zval_struct, ptr %33, i32 0, i32 1
  %35 = load i8, ptr %34, align 8
  %36 = zext i8 %35 to i32
  %37 = icmp eq i32 %36, 0
  %38 = xor i1 %37, true
  %39 = xor i1 %38, true
  %40 = zext i1 %39 to i32
  %41 = sext i32 %40 to i64
  %42 = icmp ne i64 %41, 0
  br i1 %42, label %43, label %44

43:                                               ; preds = %31
  br label %55

44:                                               ; preds = %31
  %45 = load ptr, ptr %10, align 8
  %46 = getelementptr inbounds %struct._zval_struct, ptr %45, i32 0, i32 0
  %47 = load ptr, ptr %46, align 8
  store ptr %47, ptr %6, align 8
  %48 = load ptr, ptr %4, align 8
  %49 = load ptr, ptr %6, align 8
  %50 = getelementptr inbounds %struct._spl_SplObjectStorageElement, ptr %49, i32 0, i32 0
  %51 = load ptr, ptr %50, align 8
  %52 = load ptr, ptr %6, align 8
  %53 = getelementptr inbounds %struct._spl_SplObjectStorageElement, ptr %52, i32 0, i32 1
  %54 = call ptr @spl_object_storage_attach(ptr noundef %48, ptr noundef %51, ptr noundef %53)
  br label %55

55:                                               ; preds = %44, %43
  %56 = load ptr, ptr %10, align 8
  %57 = load i64, ptr %9, align 8
  %58 = getelementptr inbounds i8, ptr %56, i64 %57
  store ptr %58, ptr %10, align 8
  %59 = load i32, ptr %8, align 4
  %60 = add i32 %59, -1
  store i32 %60, ptr %8, align 4
  br label %28

61:                                               ; preds = %28
  br label %62

62:                                               ; preds = %61
  %63 = load ptr, ptr %4, align 8
  %64 = getelementptr inbounds %struct._spl_SplObjectStorage, ptr %63, i32 0, i32 1
  store i64 0, ptr %64, align 8
  ret void
}

; Function Attrs: nounwind uwtable
define internal ptr @spl_object_storage_from_obj(ptr noundef %0) #0 {
  %2 = alloca ptr, align 8
  store ptr %0, ptr %2, align 8
  %3 = load ptr, ptr %2, align 8
  %4 = getelementptr inbounds i8, ptr %3, i64 -88
  ret ptr %4
}

; Function Attrs: nounwind uwtable
define internal ptr @spl_object_storage_new_ex(ptr noundef %0, ptr noundef %1) #0 {
  %3 = alloca ptr, align 8
  %4 = alloca ptr, align 8
  %5 = alloca ptr, align 8
  %6 = alloca i64, align 8
  %7 = alloca ptr, align 8
  %8 = alloca ptr, align 8
  %9 = alloca ptr, align 8
  %10 = alloca ptr, align 8
  %11 = alloca ptr, align 8
  %12 = alloca ptr, align 8
  %13 = alloca ptr, align 8
  %14 = alloca ptr, align 8
  store ptr %0, ptr %9, align 8
  store ptr %1, ptr %10, align 8
  %15 = load ptr, ptr %9, align 8
  store ptr %15, ptr %12, align 8
  %16 = load ptr, ptr %12, align 8
  store ptr %16, ptr %8, align 8
  %17 = load ptr, ptr %8, align 8
  %18 = getelementptr inbounds %struct._zend_class_entry, ptr %17, i32 0, i32 5
  %19 = load i32, ptr %18, align 8
  %20 = load ptr, ptr %8, align 8
  %21 = getelementptr inbounds %struct._zend_class_entry, ptr %20, i32 0, i32 4
  %22 = load i32, ptr %21, align 4
  %23 = and i32 %22, 2048
  %24 = icmp ne i32 %23, 0
  %25 = select i1 %24, i32 0, i32 1
  %26 = sub nsw i32 %19, %25
  %27 = sext i32 %26 to i64
  %28 = mul i64 16, %27
  %29 = add i64 144, %28
  %30 = call noalias ptr @_emalloc(i64 noundef %29) #14
  store ptr %30, ptr %11, align 8
  %31 = load ptr, ptr %11, align 8
  call void @llvm.memset.p0.i64(ptr align 8 %31, i8 0, i64 128, i1 false)
  %32 = load ptr, ptr %11, align 8
  %33 = getelementptr inbounds %struct._spl_SplObjectStorage, ptr %32, i32 0, i32 2
  store i32 0, ptr %33, align 8
  %34 = load ptr, ptr %11, align 8
  %35 = getelementptr inbounds %struct._spl_SplObjectStorage, ptr %34, i32 0, i32 5
  %36 = load ptr, ptr %9, align 8
  call void @zend_object_std_init(ptr noundef %35, ptr noundef %36)
  %37 = load ptr, ptr %11, align 8
  %38 = getelementptr inbounds %struct._spl_SplObjectStorage, ptr %37, i32 0, i32 5
  %39 = load ptr, ptr %9, align 8
  call void @object_properties_init(ptr noundef %38, ptr noundef %39)
  %40 = load ptr, ptr %11, align 8
  %41 = getelementptr inbounds %struct._spl_SplObjectStorage, ptr %40, i32 0, i32 0
  call void @_zend_hash_init(ptr noundef %41, i32 noundef 0, ptr noundef @spl_object_storage_dtor, i1 noundef zeroext false)
  br label %42

42:                                               ; preds = %160, %2
  %43 = load ptr, ptr %12, align 8
  %44 = icmp ne ptr %43, null
  br i1 %44, label %45, label %164

45:                                               ; preds = %42
  %46 = load ptr, ptr %12, align 8
  %47 = load ptr, ptr @spl_ce_SplObjectStorage, align 8
  %48 = icmp eq ptr %46, %47
  br i1 %48, label %49, label %160

49:                                               ; preds = %45
  %50 = load ptr, ptr %9, align 8
  %51 = load ptr, ptr @spl_ce_SplObjectStorage, align 8
  %52 = icmp ne ptr %50, %51
  br i1 %52, label %53, label %159

53:                                               ; preds = %49
  %54 = load ptr, ptr %9, align 8
  %55 = getelementptr inbounds %struct._zend_class_entry, ptr %54, i32 0, i32 10
  store ptr %55, ptr %4, align 8
  store ptr @.str.61, ptr %5, align 8
  store i64 7, ptr %6, align 8
  %56 = load ptr, ptr %4, align 8
  %57 = load ptr, ptr %5, align 8
  %58 = load i64, ptr %6, align 8
  %59 = call ptr @zend_hash_str_find(ptr noundef %56, ptr noundef %57, i64 noundef %58) #10
  store ptr %59, ptr %7, align 8
  %60 = load ptr, ptr %7, align 8
  %61 = icmp ne ptr %60, null
  br i1 %61, label %62, label %68

62:                                               ; preds = %53
  %63 = load ptr, ptr %7, align 8
  %64 = load ptr, ptr %63, align 8
  %65 = icmp ne ptr %64, null
  call void @llvm.assume(i1 %65)
  %66 = load ptr, ptr %7, align 8
  %67 = load ptr, ptr %66, align 8
  store ptr %67, ptr %3, align 8
  br label %69

68:                                               ; preds = %53
  store ptr null, ptr %3, align 8
  br label %69

69:                                               ; preds = %68, %62
  %70 = load ptr, ptr %3, align 8
  store ptr %70, ptr %13, align 8
  %71 = load ptr, ptr %13, align 8
  %72 = getelementptr inbounds %struct.anon.7, ptr %71, i32 0, i32 4
  %73 = load ptr, ptr %72, align 8
  %74 = load ptr, ptr @spl_ce_SplObjectStorage, align 8
  %75 = icmp ne ptr %73, %74
  br i1 %75, label %76, label %80

76:                                               ; preds = %69
  %77 = load ptr, ptr %13, align 8
  %78 = load ptr, ptr %11, align 8
  %79 = getelementptr inbounds %struct._spl_SplObjectStorage, ptr %78, i32 0, i32 4
  store ptr %77, ptr %79, align 8
  br label %80

80:                                               ; preds = %76, %69
  %81 = load ptr, ptr %11, align 8
  %82 = getelementptr inbounds %struct._spl_SplObjectStorage, ptr %81, i32 0, i32 4
  %83 = load ptr, ptr %82, align 8
  %84 = icmp ne ptr %83, null
  br i1 %84, label %109, label %85

85:                                               ; preds = %80
  %86 = load ptr, ptr %9, align 8
  %87 = getelementptr inbounds %struct._zend_class_entry, ptr %86, i32 0, i32 31
  %88 = load ptr, ptr %87, align 8
  %89 = icmp ne ptr %88, null
  br i1 %89, label %90, label %97

90:                                               ; preds = %85
  %91 = load ptr, ptr %9, align 8
  %92 = getelementptr inbounds %struct._zend_class_entry, ptr %91, i32 0, i32 31
  %93 = load ptr, ptr %92, align 8
  %94 = getelementptr inbounds %struct._zend_class_arrayaccess_funcs, ptr %93, i32 0, i32 0
  %95 = load ptr, ptr %94, align 8
  %96 = icmp ne ptr %95, null
  br i1 %96, label %109, label %97

97:                                               ; preds = %90, %85
  %98 = load ptr, ptr %9, align 8
  %99 = getelementptr inbounds %struct._zend_class_entry, ptr %98, i32 0, i32 31
  %100 = load ptr, ptr %99, align 8
  %101 = icmp ne ptr %100, null
  br i1 %101, label %102, label %114

102:                                              ; preds = %97
  %103 = load ptr, ptr %9, align 8
  %104 = getelementptr inbounds %struct._zend_class_entry, ptr %103, i32 0, i32 31
  %105 = load ptr, ptr %104, align 8
  %106 = getelementptr inbounds %struct._zend_class_arrayaccess_funcs, ptr %105, i32 0, i32 1
  %107 = load ptr, ptr %106, align 8
  %108 = icmp ne ptr %107, null
  br i1 %108, label %109, label %114

109:                                              ; preds = %102, %90, %80
  %110 = load ptr, ptr %11, align 8
  %111 = getelementptr inbounds %struct._spl_SplObjectStorage, ptr %110, i32 0, i32 3
  %112 = load i64, ptr %111, align 8
  %113 = or i64 %112, 1
  store i64 %113, ptr %111, align 8
  br label %114

114:                                              ; preds = %109, %102, %97
  %115 = load ptr, ptr %11, align 8
  %116 = getelementptr inbounds %struct._spl_SplObjectStorage, ptr %115, i32 0, i32 4
  %117 = load ptr, ptr %116, align 8
  %118 = icmp ne ptr %117, null
  br i1 %118, label %131, label %119

119:                                              ; preds = %114
  %120 = load ptr, ptr %9, align 8
  %121 = getelementptr inbounds %struct._zend_class_entry, ptr %120, i32 0, i32 31
  %122 = load ptr, ptr %121, align 8
  %123 = icmp ne ptr %122, null
  br i1 %123, label %124, label %136

124:                                              ; preds = %119
  %125 = load ptr, ptr %9, align 8
  %126 = getelementptr inbounds %struct._zend_class_entry, ptr %125, i32 0, i32 31
  %127 = load ptr, ptr %126, align 8
  %128 = getelementptr inbounds %struct._zend_class_arrayaccess_funcs, ptr %127, i32 0, i32 2
  %129 = load ptr, ptr %128, align 8
  %130 = icmp ne ptr %129, null
  br i1 %130, label %131, label %136

131:                                              ; preds = %124, %114
  %132 = load ptr, ptr %11, align 8
  %133 = getelementptr inbounds %struct._spl_SplObjectStorage, ptr %132, i32 0, i32 3
  %134 = load i64, ptr %133, align 8
  %135 = or i64 %134, 2
  store i64 %135, ptr %133, align 8
  br label %136

136:                                              ; preds = %131, %124, %119
  %137 = load ptr, ptr %11, align 8
  %138 = getelementptr inbounds %struct._spl_SplObjectStorage, ptr %137, i32 0, i32 4
  %139 = load ptr, ptr %138, align 8
  %140 = icmp ne ptr %139, null
  br i1 %140, label %153, label %141

141:                                              ; preds = %136
  %142 = load ptr, ptr %9, align 8
  %143 = getelementptr inbounds %struct._zend_class_entry, ptr %142, i32 0, i32 31
  %144 = load ptr, ptr %143, align 8
  %145 = icmp ne ptr %144, null
  br i1 %145, label %146, label %158

146:                                              ; preds = %141
  %147 = load ptr, ptr %9, align 8
  %148 = getelementptr inbounds %struct._zend_class_entry, ptr %147, i32 0, i32 31
  %149 = load ptr, ptr %148, align 8
  %150 = getelementptr inbounds %struct._zend_class_arrayaccess_funcs, ptr %149, i32 0, i32 3
  %151 = load ptr, ptr %150, align 8
  %152 = icmp ne ptr %151, null
  br i1 %152, label %153, label %158

153:                                              ; preds = %146, %136
  %154 = load ptr, ptr %11, align 8
  %155 = getelementptr inbounds %struct._spl_SplObjectStorage, ptr %154, i32 0, i32 3
  %156 = load i64, ptr %155, align 8
  %157 = or i64 %156, 4
  store i64 %157, ptr %155, align 8
  br label %158

158:                                              ; preds = %153, %146, %141
  br label %159

159:                                              ; preds = %158, %49
  br label %164

160:                                              ; preds = %45
  %161 = load ptr, ptr %12, align 8
  %162 = getelementptr inbounds %struct._zend_class_entry, ptr %161, i32 0, i32 2
  %163 = load ptr, ptr %162, align 8
  store ptr %163, ptr %12, align 8
  br label %42

164:                                              ; preds = %159, %42
  %165 = load ptr, ptr %10, align 8
  %166 = icmp ne ptr %165, null
  br i1 %166, label %167, label %172

167:                                              ; preds = %164
  %168 = load ptr, ptr %10, align 8
  %169 = call ptr @spl_object_storage_from_obj(ptr noundef %168)
  store ptr %169, ptr %14, align 8
  %170 = load ptr, ptr %11, align 8
  %171 = load ptr, ptr %14, align 8
  call void @spl_object_storage_addall(ptr noundef %170, ptr noundef %171)
  br label %172

172:                                              ; preds = %167, %164
  %173 = load ptr, ptr %11, align 8
  %174 = getelementptr inbounds %struct._spl_SplObjectStorage, ptr %173, i32 0, i32 5
  ret ptr %174
}