; Function Attrs: nounwind uwtable
define internal fastcc noundef nonnull ptr @spl_object_storage_new_ex(ptr noundef %0, ptr noundef readonly %1) unnamed_addr #0 {
.lr.ph:
  %2 = getelementptr inbounds i8, ptr %0, i64 32
  %3 = load i32, ptr %2, align 8
  %4 = getelementptr inbounds i8, ptr %0, i64 28
  %5 = load i32, ptr %4, align 4
  %6 = lshr i32 %5, 11
  %.lobit = and i32 %6, 1
  %7 = xor i32 %.lobit, 1
  %8 = sub nsw i32 %3, %7
  %9 = sext i32 %8 to i64
  %10 = shl nsw i64 %9, 4
  %11 = add nsw i64 %10, 144
  %12 = tail call noalias ptr @_emalloc(i64 noundef %11) #11
  %13 = getelementptr inbounds i8, ptr %12, i64 88
  tail call void @llvm.memset.p0.i64(ptr noundef nonnull align 8 dereferenceable(128) %12, i8 0, i64 128, i1 false)
  tail call void @zend_object_std_init(ptr noundef nonnull %13, ptr noundef %0) #10
  tail call void @object_properties_init(ptr noundef nonnull %13, ptr noundef %0) #10
  tail call void @_zend_hash_init(ptr noundef %12, i32 noundef 0, ptr noundef nonnull @spl_object_storage_dtor, i1 noundef zeroext false) #10
  %14 = load ptr, ptr @spl_ce_SplObjectStorage, align 8
  br label %15

15:                                               ; preds = %.lr.ph, %60
  %.04469 = phi ptr [ %0, %.lr.ph ], [ %62, %60 ]
  %16 = icmp eq ptr %.04469, %14
  br i1 %16, label %17, label %60

17:                                               ; preds = %15
  %.not53 = icmp eq ptr %14, %0
  br i1 %.not53, label %.loopexit, label %18

18:                                               ; preds = %17
  %19 = getelementptr inbounds i8, ptr %0, i64 64
  %20 = tail call ptr @zend_hash_str_find(ptr noundef nonnull %19, ptr noundef nonnull @.str.61, i64 noundef 7) #10
  %.not54 = icmp ne ptr %20, null
  tail call void @llvm.assume(i1 %.not54)
  %21 = load ptr, ptr %20, align 8, !nonnull !4, !noundef !4
  %22 = getelementptr inbounds i8, ptr %21, i64 16
  %23 = load ptr, ptr %22, align 8
  %24 = load ptr, ptr @spl_ce_SplObjectStorage, align 8
  %.not55 = icmp eq ptr %23, %24
  %.phi.trans.insert = getelementptr inbounds i8, ptr %12, i64 80
  br i1 %.not55, label %25, label %.thread70

.thread70:                                        ; preds = %18
  store ptr %21, ptr %.phi.trans.insert, align 8
  br label %46

25:                                               ; preds = %18
  %.pre = load ptr, ptr %.phi.trans.insert, align 8
  %26 = icmp eq ptr %.pre, null
  br i1 %26, label %27, label %46

27:                                               ; preds = %25
  %28 = getelementptr inbounds i8, ptr %0, i64 376
  %29 = load ptr, ptr %28, align 8
  %.not57 = icmp eq ptr %29, null
  br i1 %.not57, label %.thread.thread, label %30

30:                                               ; preds = %27
  %31 = load ptr, ptr %29, align 8
  %.not58 = icmp eq ptr %31, null
  br i1 %.not58, label %32, label %.thread.thread79

32:                                               ; preds = %30
  %33 = getelementptr inbounds i8, ptr %29, i64 8
  %34 = load ptr, ptr %33, align 8
  %.not60 = icmp eq ptr %34, null
  br i1 %.not60, label %.thread.thread, label %.thread.thread79

.thread.thread79:                                 ; preds = %32, %30
  %35 = getelementptr inbounds i8, ptr %12, i64 72
  %36 = load i64, ptr %35, align 8
  %37 = or i64 %36, 1
  store i64 %37, ptr %35, align 8
  br label %.thread.thread

.thread.thread:                                   ; preds = %32, %27, %.thread.thread79
  %38 = getelementptr inbounds i8, ptr %0, i64 376
  %39 = load ptr, ptr %38, align 8
  %.not62 = icmp eq ptr %39, null
  br i1 %.not62, label %.thread81, label %40

40:                                               ; preds = %.thread.thread
  %41 = getelementptr inbounds i8, ptr %39, i64 16
  %42 = load ptr, ptr %41, align 8
  %.not63 = icmp eq ptr %42, null
  br i1 %.not63, label %.thread81, label %.thread83

.thread83:                                        ; preds = %40
  %43 = getelementptr inbounds i8, ptr %12, i64 72
  %44 = load i64, ptr %43, align 8
  %45 = or i64 %44, 2
  store i64 %45, ptr %43, align 8
  br label %.thread81

46:                                               ; preds = %.thread70, %25
  %47 = getelementptr inbounds i8, ptr %12, i64 72
  %48 = load i64, ptr %47, align 8
  %49 = getelementptr inbounds i8, ptr %12, i64 72
  %50 = or i64 %48, 3
  store i64 %50, ptr %49, align 8
  br label %56

.thread81:                                        ; preds = %.thread.thread, %40, %.thread83
  %51 = getelementptr inbounds i8, ptr %0, i64 376
  %52 = load ptr, ptr %51, align 8
  %.not65 = icmp eq ptr %52, null
  br i1 %.not65, label %.loopexit, label %53

53:                                               ; preds = %.thread81
  %54 = getelementptr inbounds i8, ptr %52, i64 24
  %55 = load ptr, ptr %54, align 8
  %.not66 = icmp eq ptr %55, null
  br i1 %.not66, label %.loopexit, label %56

56:                                               ; preds = %46, %53
  %57 = getelementptr inbounds i8, ptr %12, i64 72
  %58 = load i64, ptr %57, align 8
  %59 = or i64 %58, 4
  store i64 %59, ptr %57, align 8
  br label %.loopexit

60:                                               ; preds = %15
  %61 = getelementptr inbounds i8, ptr %.04469, i64 16
  %62 = load ptr, ptr %61, align 8
  %.not = icmp eq ptr %62, null
  br i1 %.not, label %.loopexit, label %15

.loopexit:                                        ; preds = %60, %17, %56, %53, %.thread81
  %.not67 = icmp eq ptr %1, null
  br i1 %.not67, label %86, label %63

63:                                               ; preds = %.loopexit
  %64 = getelementptr inbounds i8, ptr %1, i64 -64
  %65 = load i32, ptr %64, align 8
  %66 = getelementptr inbounds i8, ptr %1, i64 -80
  %67 = load i32, ptr %66, align 8
  %68 = shl i32 %67, 2
  %69 = and i32 %68, 16
  %70 = xor i32 %69, 16
  %narrow.i = add nuw nsw i32 %70, 16
  %71 = zext nneg i32 %narrow.i to i64
  %.not15.i = icmp eq i32 %65, 0
  br i1 %.not15.i, label %spl_object_storage_addall.exit, label %.lr.ph.preheader.i

.lr.ph.preheader.i:                               ; preds = %63
  %72 = getelementptr inbounds i8, ptr %1, i64 -72
  %73 = load ptr, ptr %72, align 8
  br label %.lr.ph.i

.lr.ph.i:                                         ; preds = %82, %.lr.ph.preheader.i
  %.017.i = phi ptr [ %83, %82 ], [ %73, %.lr.ph.preheader.i ]
  %.01416.i = phi i32 [ %84, %82 ], [ %65, %.lr.ph.preheader.i ]
  %74 = getelementptr inbounds i8, ptr %.017.i, i64 8
  %75 = load i8, ptr %74, align 8
  %76 = icmp eq i8 %75, 0
  br i1 %76, label %82, label %77

77:                                               ; preds = %.lr.ph.i
  %78 = load ptr, ptr %.017.i, align 8
  %79 = load ptr, ptr %78, align 8
  %80 = getelementptr inbounds i8, ptr %78, i64 8
  %81 = tail call fastcc ptr @spl_object_storage_attach(ptr noundef %12, ptr noundef %79, ptr noundef nonnull %80)
  br label %82

82:                                               ; preds = %77, %.lr.ph.i
  %83 = getelementptr inbounds i8, ptr %.017.i, i64 %71
  %84 = add i32 %.01416.i, -1
  %.not.i = icmp eq i32 %84, 0
  br i1 %.not.i, label %spl_object_storage_addall.exit, label %.lr.ph.i

spl_object_storage_addall.exit:                   ; preds = %82, %63
  %85 = getelementptr inbounds i8, ptr %12, i64 56
  store i64 0, ptr %85, align 8
  br label %86

86:                                               ; preds = %spl_object_storage_addall.exit, %.loopexit
  ret ptr %13
}